(dp0
S'IndirAperto'
p1
(dp2
S'60%'
p3
(lp4
I160
aF177.25
aI197
aI7
aF16.0
aI29
asS'70%'
p5
(lp6
I215
aF239.05000000000001
aI260
aI15
aF26.600000000000001
aI39
asS'98%'
p7
(lp8
I449
aF476.19999999999999
aI496
aI170
aF372.19999999999999
aI757
asS'40%'
p9
(lp10
I70
aF80.0
aI89
aI5
aF6.8499999999999996
aI12
asS'91%'
p11
(lp12
I387
aF406.80000000000001
aI428
aI71
aF163.30000000000001
aI327
asS'50%'
p13
(lp14
I101
aF123.45
aI143
aI6
aF12.800000000000001
aI22
asS'93%'
p15
(lp16
I407
aF428.55000000000001
aI456
aI74
aF175.59999999999999
aI346
asS'85%'
p17
(lp18
I335
aF354.25
aI375
aI33
aF100.2
aI200
asS'97%'
p19
(lp20
I436
aF467.19999999999999
aI496
aI155
aF331.55000000000001
aI571
asS'87%'
p21
(lp22
I353
aF375.64999999999998
aI400
aI37
aF106.3
aI244
asS'95%'
p23
(lp24
I426
aF443.60000000000002
aI465
aI117
aF225.15000000000001
aI427
asS'10%'
p25
(lp26
I3
aF5.7000000000000002
aI9
aI1
aF1.5
aI4
asS'99%'
p27
(lp28
I457
aF482.60000000000002
aI504
aI244
aF580.79999999999995
aI883
asS'20%'
p29
(lp30
I11
aF18.199999999999999
aI27
aI1
aF2.5499999999999998
aI7
asS'89%'
p31
(lp32
I375
aF391.75
aI418
aI57
aF128.65000000000001
aI299
asS'75%'
p33
(lp34
I254
aF278.35000000000002
aI299
aI20
aF37.25
aI74
asS'30%'
p35
(lp36
I31
aF42.450000000000003
aI56
aI2
aF4.9000000000000004
aI10
asS'100%'
p37
(lp38
I477
aF495.14999999999998
aI521
aI231
aF567.20000000000005
aI916
asS'92%'
p39
(lp40
I385
aF420.64999999999998
aI438
aI83
aF182.80000000000001
aI321
asS'80%'
p41
(lp42
I303
aF319.39999999999998
aI341
aI29
aF58.850000000000001
aI95
asS'96%'
p43
(lp44
I437
aF457.39999999999998
aI484
aI144
aF329.60000000000002
aI628
asS'90%'
p45
(lp46
I386
aF401.35000000000002
aI418
aI43
aF162.34999999999999
aI342
asS'94%'
p47
(lp48
I413
aF437.89999999999998
aI460
aI124
aF264.05000000000001
aI424
assS'Concatenata'
p49
(dp50
S'60%'
p51
(lp52
I133
aF148.25
aI171
asS'70%'
p53
(lp54
I181
aF195.84999999999999
aI209
asS'98%'
p55
(lp56
I324
aF352.10000000000002
aI370
asS'40%'
p57
(lp58
I56
aF68.650000000000006
aI82
asS'91%'
p59
(lp60
I292
aF310.69999999999999
aI343
asS'50%'
p61
(lp62
I94
aF105.34999999999999
aI116
asS'93%'
p63
(lp64
I304
aF321.14999999999998
aI339
asS'85%'
p65
(lp66
I269
aF280.89999999999998
aI297
asS'97%'
p67
(lp68
I326
aF348.60000000000002
aI369
asS'87%'
p69
(lp70
I270
aF287.75
aI306
asS'95%'
p71
(lp72
I313
aF338.39999999999998
aI358
asS'10%'
p73
(lp74
I1
aF4.3499999999999996
aI8
asS'99%'
p75
(lp76
I345
aF362.19999999999999
aI396
asS'20%'
p77
(lp78
I15
aF19.149999999999999
aI27
asS'89%'
p79
(lp80
I281
aF300.69999999999999
aI320
asS'75%'
p81
(lp82
I209
aF224.0
aI235
asS'30%'
p83
(lp84
I30
aF42.100000000000001
aI49
asS'100%'
p85
(lp86
I355
aF367.5
aI385
asS'92%'
p87
(lp88
I300
aF316.14999999999998
aI338
asS'80%'
p89
(lp90
I234
aF249.80000000000001
aI273
asS'96%'
p91
(lp92
I327
aF345.25
aI361
asS'90%'
p93
(lp94
I294
aF308.05000000000001
aI328
asS'94%'
p95
(lp96
I309
aF327.75
aI345
ass.